; Function Attrs: mustprogress uwtable
define internal fastcc noundef ptr @_ZL15_createTimeZonePKDsiP10UErrorCode(ptr noundef %zoneID, i32 noundef %len, ptr noundef %ec) unnamed_addr #1 personality ptr @__gxx_personality_v0 {
entry:
  %zoneStrID = alloca %"class.icu_75::UnicodeString", align 8
  %agg.tmp = alloca %"class.icu_75::ConstChar16Ptr", align 8
  %cmp.not = icmp eq ptr %ec, null
  br i1 %cmp.not, label %if.end11, label %land.lhs.true

land.lhs.true:                                    ; preds = %entry
  %0 = load i32, ptr %ec, align 4
  %cmp.i = icmp sgt i32 %0, 0
  br i1 %cmp.i, label %if.end11, label %if.then

if.then:                                          ; preds = %land.lhs.true
  %cmp1 = icmp slt i32 %len, 0
  br i1 %cmp1, label %cond.true, label %cond.end

cond.true:                                        ; preds = %if.then
  %call2 = tail call i32 @u_strlen_75(ptr noundef %zoneID)
  br label %cond.end

cond.end:                                         ; preds = %if.then, %cond.true
  %cond = phi i32 [ %call2, %cond.true ], [ %len, %if.then ]
  store ptr getelementptr inbounds ({ [13 x ptr] }, ptr @_ZTVN6icu_7513UnicodeStringE, i64 0, i32 0, i64 2), ptr %zoneStrID, align 8
  %fUnion2.i = getelementptr inbounds i8, ptr %zoneStrID, i64 8
  store i16 2, ptr %fUnion2.i, align 8
  %len.lobit = lshr i32 %len, 31
  %conv = trunc i32 %len.lobit to i8
  store ptr %zoneID, ptr %agg.tmp, align 8
  %call6 = invoke noundef nonnull align 8 dereferenceable(64) ptr @_ZN6icu_7513UnicodeString5setToEaNS_14ConstChar16PtrEi(ptr noundef nonnull align 8 dereferenceable(64) %zoneStrID, i8 noundef signext %conv, ptr noundef nonnull %agg.tmp, i32 noundef %cond)
          to label %invoke.cont5 unwind label %lpad4

invoke.cont5:                                     ; preds = %cond.end
  %1 = load ptr, ptr %agg.tmp, align 8
  call void asm sideeffect "", "rm,~{memory},~{dirflag},~{fpsr},~{flags}"(ptr %1) #11, !srcloc !5
  %call8 = invoke noundef ptr @_ZN6icu_758TimeZone14createTimeZoneERKNS_13UnicodeStringE(ptr noundef nonnull align 8 dereferenceable(64) %zoneStrID)
          to label %invoke.cont7 unwind label %lpad

invoke.cont7:                                     ; preds = %invoke.cont5
  %cmp9 = icmp eq ptr %call8, null
  br i1 %cmp9, label %if.then10, label %if.end

if.then10:                                        ; preds = %invoke.cont7
  store i32 7, ptr %ec, align 4
  br label %if.end

lpad:                                             ; preds = %invoke.cont5
  %2 = landingpad { ptr, i32 }
          cleanup
  br label %ehcleanup

lpad4:                                            ; preds = %cond.end
  %3 = landingpad { ptr, i32 }
          cleanup
  %4 = load ptr, ptr %agg.tmp, align 8
  call void asm sideeffect "", "rm,~{memory},~{dirflag},~{fpsr},~{flags}"(ptr %4) #11, !srcloc !5
  br label %ehcleanup

if.end:                                           ; preds = %if.then10, %invoke.cont7
  call void @_ZN6icu_7513UnicodeStringD1Ev(ptr noundef nonnull align 8 dereferenceable(64) %zoneStrID) #11
  br label %if.end11

ehcleanup:                                        ; preds = %lpad4, %lpad
  %.pn = phi { ptr, i32 } [ %2, %lpad ], [ %3, %lpad4 ]
  call void @_ZN6icu_7513UnicodeStringD1Ev(ptr noundef nonnull align 8 dereferenceable(64) %zoneStrID) #11
  resume { ptr, i32 } %.pn

if.end11:                                         ; preds = %if.end, %land.lhs.true, %entry
  %zone.0 = phi ptr [ %call8, %if.end ], [ null, %land.lhs.true ], [ null, %entry ]
  ret ptr %zone.0
}